; Function Attrs: mustprogress uwtable
define void @_ZN3net11QuicSession10SendGoAwayENS_13QuicErrorCodeERKNSt7__cxx1112basic_stringIcSt11char_traitsIcESaIcEEE(ptr noundef nonnull readonly align 8 captures(none) dereferenceable(2044) %0, i32 noundef %1, ptr noundef nonnull align 8 dereferenceable(32) %2) local_unnamed_addr #0 align 2 {
  %4 = getelementptr inbounds nuw i8, ptr %0, i64 56
  %5 = load ptr, ptr %4, align 8, !tbaa !18
  %6 = getelementptr inbounds nuw i8, ptr %5, i64 3368
  %7 = load i8, ptr %6, align 8, !tbaa !293, !range !256, !noundef !257
  %8 = trunc nuw i8 %7 to i1
  br i1 %8, label %15, label %9

9:                                                ; preds = %3
  %10 = getelementptr inbounds nuw i8, ptr %0, i64 1904
  %11 = load i32, ptr %10, align 8, !tbaa !215
  %12 = load ptr, ptr %5, align 8, !tbaa !3
  %13 = getelementptr inbounds nuw i8, ptr %12, i64 264
  %14 = load ptr, ptr %13, align 8
  tail call void %14(ptr noundef nonnull align 8 dereferenceable(3372) %5, i32 noundef %1, i32 noundef %11, ptr noundef nonnull align 8 dereferenceable(32) %2)
  br label %15

15:                                               ; preds = %3, %9
  ret void
}